; Function Attrs: nounwind uwtable
define ptr @Cec3_ManSimulateTest(ptr noundef %0, ptr noundef readonly captures(none) %1) local_unnamed_addr #2 {
  %3 = alloca ptr, align 8
  %4 = alloca %struct.Cec3_Par_t_, align 4
  call void @llvm.lifetime.start.p0(i64 8, ptr nonnull %3) #22
  store ptr null, ptr %3, align 8, !tbaa !149
  call void @llvm.lifetime.start.p0(i64 32, ptr nonnull %4) #22
  store i32 12, ptr %4, align 4, !tbaa !3
  %5 = getelementptr inbounds nuw i8, ptr %4, i64 4
  store i32 4, ptr %5, align 4, !tbaa !8
  %6 = getelementptr inbounds nuw i8, ptr %4, i64 8
  store i32 10, ptr %6, align 4, !tbaa !9
  %7 = getelementptr inbounds nuw i8, ptr %4, i64 12
  %8 = getelementptr inbounds nuw i8, ptr %4, i64 16
  call void @llvm.memset.p0.i64(ptr noundef nonnull align 4 dereferenceable(16) %8, i8 0, i64 12, i1 false)
  %9 = getelementptr inbounds nuw i8, ptr %1, i64 16
  %10 = load i32, ptr %9, align 8, !tbaa !152
  store i32 %10, ptr %7, align 4, !tbaa !10
  %11 = getelementptr inbounds nuw i8, ptr %1, i64 72
  %12 = load i32, ptr %11, align 8, !tbaa !154
  %13 = getelementptr inbounds nuw i8, ptr %4, i64 20
  store i32 %12, ptr %13, align 4, !tbaa !133
  %14 = getelementptr inbounds nuw i8, ptr %1, i64 84
  %15 = load i32, ptr %14, align 4, !tbaa !155
  %16 = getelementptr inbounds nuw i8, ptr %4, i64 28
  store i32 %15, ptr %16, align 4, !tbaa !119
  %17 = call i32 @Cec3_ManPerformSweeping(ptr noundef %0, ptr noundef nonnull %4, ptr noundef nonnull %3)
  %18 = load ptr, ptr %3, align 8, !tbaa !149
  call void @llvm.lifetime.end.p0(i64 32, ptr nonnull %4) #22
  call void @llvm.lifetime.end.p0(i64 8, ptr nonnull %3) #22
  ret ptr %18
}